#include <math.h>
#include <stdio.h>
#include <stdlib.h>
#include <string.h>

int main()
{int n,i,j;
	char jj[1000][300];
		scanf("%d",&n);
for(i=0;i<n;i++)
{
	scanf("%s",jj[i]);
		for(j=0;j<strlen(jj[i]);j++)
		{
			if(jj[i][j]=='A')
			{jj[i][j]='T';
			continue;}
			if(jj[i][j]=='T'){
				jj[i][j]='A';
			continue;}
			if(jj[i][j]=='G'){
				jj[i][j]='C';
			continue;}
			if(jj[i][j]=='C'){
				jj[i][j]='G';
			continue;}
		}
		printf("%s\n",jj[i]);}
		return 0;

return 0;
}


